target datalayout = "e-m:e-p270:32:32-p271:32:32-p272:64:64-i64:64-i128:128-f80:128-n8:16:32:64-S128"
target triple = "x86_64-pc-linux-gnu"

@H5D_init_g = external global i8, align 1
@H5_libterm_g = external global i8, align 1
@.str.6 = private unnamed_addr constant [14 x i8] c"Element #%lu:\00", align 1
@.str.7 = private unnamed_addr constant [13 x i8] c"%*s%-*s %lu\0A\00", align 1
@.str.8 = private unnamed_addr constant [1 x i8] zeroinitializer, align 1

; Function Attrs: nounwind uwtable
define internal i32 @H5D__earray_debug(ptr noundef %0, i32 noundef %1, i32 noundef %2, i64 noundef %3, ptr noundef %4) #0 {
  %6 = alloca ptr, align 8
  %7 = alloca i32, align 4
  %8 = alloca i32, align 4
  %9 = alloca i64, align 8
  %10 = alloca ptr, align 8
  %11 = alloca [128 x i8], align 16
  store ptr %0, ptr %6, align 8, !tbaa !103
  store i32 %1, ptr %7, align 4, !tbaa !12
  store i32 %2, ptr %8, align 4, !tbaa !12
  store i64 %3, ptr %9, align 8, !tbaa !10
  store ptr %4, ptr %10, align 8, !tbaa !80
  call void @llvm.lifetime.start.p0(i64 128, ptr %11) #8
  %12 = load i8, ptr @H5D_init_g, align 1, !tbaa !14, !range !16, !noundef !17
  %13 = trunc i8 %12 to i1
  br i1 %13, label %18, label %14

14:                                               ; preds = %5
  %15 = load i8, ptr @H5_libterm_g, align 1, !tbaa !14, !range !16, !noundef !17
  %16 = trunc i8 %15 to i1
  %17 = xor i1 %16, true
  br label %18

18:                                               ; preds = %14, %5
  %19 = phi i1 [ true, %5 ], [ %17, %14 ]
  %20 = xor i1 %19, true
  %21 = xor i1 %20, true
  %22 = zext i1 %21 to i32
  %23 = sext i32 %22 to i64
  %24 = call i64 @llvm.expect.i64(i64 %23, i64 1)
  %25 = icmp ne i64 %24, 0
  br i1 %25, label %26, label %37

26:                                               ; preds = %18
  %27 = getelementptr inbounds [128 x i8], ptr %11, i64 0, i64 0
  %28 = load i64, ptr %9, align 8, !tbaa !10
  %29 = call i32 (ptr, i64, ptr, ...) @snprintf(ptr noundef %27, i64 noundef 128, ptr noundef @.str.6, i64 noundef %28) #8
  %30 = load ptr, ptr %6, align 8, !tbaa !103
  %31 = load i32, ptr %7, align 4, !tbaa !12
  %32 = load i32, ptr %8, align 4, !tbaa !12
  %33 = getelementptr inbounds [128 x i8], ptr %11, i64 0, i64 0
  %34 = load ptr, ptr %10, align 8, !tbaa !80
  %35 = load i64, ptr %34, align 8, !tbaa !10
  %36 = call i32 (ptr, ptr, ...) @fprintf(ptr noundef %30, ptr noundef @.str.7, i32 noundef %31, ptr noundef @.str.8, i32 noundef %32, ptr noundef %33, i64 noundef %35) #8
  br label %37

37:                                               ; preds = %26, %18
  call void @llvm.lifetime.end.p0(i64 128, ptr %11) #8
  ret i32 0
}