; Function Attrs: nofree nounwind uwtable
define internal noundef i32 @H5D__earray_debug(ptr noundef captures(none) %0, i32 noundef %1, i32 noundef %2, i64 noundef %3, ptr noundef readonly captures(none) %4) #4 {
  %6 = alloca [128 x i8], align 16
  call void @llvm.lifetime.start.p0(i64 128, ptr nonnull %6) #11
  %7 = load i8, ptr @H5D_init_g, align 1, !tbaa !3, !range !7, !noundef !8
  %8 = trunc nuw i8 %7 to i1
  %9 = load i8, ptr @H5_libterm_g, align 1, !range !7
  %10 = trunc nuw i8 %9 to i1
  %11 = xor i1 %10, true
  %12 = select i1 %8, i1 true, i1 %11
  br i1 %12, label %13, label %17, !prof !9

13:                                               ; preds = %5
  %14 = call i32 (ptr, i64, ptr, ...) @snprintf(ptr noundef nonnull dereferenceable(1) %6, i64 noundef 128, ptr noundef nonnull @.str.6, i64 noundef %3) #11
  %15 = load i64, ptr %4, align 8, !tbaa !10
  %16 = call i32 (ptr, ptr, ...) @fprintf(ptr noundef %0, ptr noundef nonnull @.str.7, i32 noundef %1, ptr noundef nonnull @.str.8, i32 noundef %2, ptr noundef nonnull %6, i64 noundef %15) #11
  br label %17

17:                                               ; preds = %13, %5
  call void @llvm.lifetime.end.p0(i64 128, ptr nonnull %6) #11
  ret i32 0
}